target datalayout = "e-m:e-p270:32:32-p271:32:32-p272:64:64-i64:64-i128:128-f80:128-n8:16:32:64-S128"
target triple = "x86_64-unknown-linux-gnu"

%struct.iovec = type { ptr, i64 }
%struct.Packet = type { ptr, %union.anon, ptr, i32, i64, i32, i32, i32, i32, i8, i16, i16, i8 }
%union.anon = type { ptr }
%struct.eth_header = type { [6 x i8], [6 x i8], i16 }
%struct.vlan_header = type { i16, i16 }
%struct.timeval = type { i64, i64 }

@parse_packet_early.vlan = internal constant [2 x i8] c"\81\00", align 1
@.str = private unnamed_addr constant [5 x i8] c"data\00", align 1
@.str.1 = private unnamed_addr constant [19 x i8] c"../qemu/net/colo.c\00", align 1
@__PRETTY_FUNCTION__.parse_packet_early = private unnamed_addr constant [33 x i8] c"int parse_packet_early(Packet *)\00", align 1
@.str.2 = private unnamed_addr constant [33 x i8] c"This received packet load wrong \00", align 1
@.str.3 = private unnamed_addr constant [30 x i8] c"COLO-proxy don't support vlan\00", align 1
@.str.4 = private unnamed_addr constant [44 x i8] c"pkt->size < network_header + network_length\00", align 1
@trace_events_enabled_count = external global i32, align 4
@_TRACE_COLO_PROXY_MAIN_VNET_INFO_DSTATE = external global i16, align 2
@message_with_timestamp = external global i8, align 1
@.str.6 = private unnamed_addr constant [84 x i8] c"%d@%zu.%06zu:colo_proxy_main_vnet_info : %s pkt->vnet_hdr_len = %u, pkt->size = %d\0A\00", align 1
@.str.7 = private unnamed_addr constant [71 x i8] c"colo_proxy_main_vnet_info : %s pkt->vnet_hdr_len = %u, pkt->size = %d\0A\00", align 1
@qemu_loglevel = external global i32, align 4
@_TRACE_COLO_PROXY_MAIN_DSTATE = external global i16, align 2
@.str.8 = private unnamed_addr constant [35 x i8] c"%d@%zu.%06zu:colo_proxy_main : %s\0A\00", align 1
@.str.9 = private unnamed_addr constant [22 x i8] c"colo_proxy_main : %s\0A\00", align 1

; Function Attrs: nounwind sspstrong uwtable
define internal zeroext i1 @qemu_loglevel_mask(i32 noundef %mask) #0 {
entry:
  %mask.addr = alloca i32, align 4
  store i32 %mask, ptr %mask.addr, align 4
  %0 = load i32, ptr @qemu_loglevel, align 4
  %1 = load i32, ptr %mask.addr, align 4
  %and = and i32 %0, %1
  %cmp = icmp ne i32 %and, 0
  ret i1 %cmp
}

; Function Attrs: nounwind sspstrong uwtable
define internal void @_nocheck__trace_colo_proxy_main(ptr noundef %chr) #0 {
entry:
  %chr.addr = alloca ptr, align 8
  %_now = alloca %struct.timeval, align 8
  store ptr %chr, ptr %chr.addr, align 8
  %0 = load i32, ptr @trace_events_enabled_count, align 4
  %tobool = icmp ne i32 %0, 0
  %lnot = xor i1 %tobool, true
  %lnot1 = xor i1 %lnot, true
  %lnot.ext = zext i1 %lnot1 to i32
  %conv = sext i32 %lnot.ext to i64
  %tobool2 = icmp ne i64 %conv, 0
  br i1 %tobool2, label %land.lhs.true, label %if.end11

land.lhs.true:                                    ; preds = %entry
  %1 = load i16, ptr @_TRACE_COLO_PROXY_MAIN_DSTATE, align 2
  %conv3 = zext i16 %1 to i32
  %tobool4 = icmp ne i32 %conv3, 0
  br i1 %tobool4, label %land.lhs.true5, label %if.end11

land.lhs.true5:                                   ; preds = %land.lhs.true
  %call = call zeroext i1 @qemu_loglevel_mask(i32 noundef 32768)
  br i1 %call, label %if.then, label %if.end11

if.then:                                          ; preds = %land.lhs.true5
  %2 = load i8, ptr @message_with_timestamp, align 1
  %tobool7 = trunc i8 %2 to i1
  br i1 %tobool7, label %if.then8, label %if.else

if.then8:                                         ; preds = %if.then
  %call9 = call i32 @gettimeofday(ptr noundef %_now, ptr noundef null) #15
  %call10 = call i32 @qemu_get_thread_id()
  %tv_sec = getelementptr inbounds %struct.timeval, ptr %_now, i32 0, i32 0
  %3 = load i64, ptr %tv_sec, align 8
  %tv_usec = getelementptr inbounds %struct.timeval, ptr %_now, i32 0, i32 1
  %4 = load i64, ptr %tv_usec, align 8
  %5 = load ptr, ptr %chr.addr, align 8
  call void (ptr, ...) @qemu_log(ptr noundef @.str.8, i32 noundef %call10, i64 noundef %3, i64 noundef %4, ptr noundef %5)
  br label %if.end

if.else:                                          ; preds = %if.then
  %6 = load ptr, ptr %chr.addr, align 8
  call void (ptr, ...) @qemu_log(ptr noundef @.str.9, ptr noundef %6)
  br label %if.end

if.end:                                           ; preds = %if.else, %if.then8
  br label %if.end11

if.end11:                                         ; preds = %if.end, %land.lhs.true5, %land.lhs.true, %entry
  ret void
}

; Function Attrs: nounwind sspstrong uwtable
define internal zeroext i16 @be16_to_cpu(i16 noundef zeroext %v) #0 {
entry:
  %v.addr = alloca i16, align 2
  store i16 %v, ptr %v.addr, align 2
  %0 = load i16, ptr %v.addr, align 2
  %1 = call i16 @llvm.bswap.i16(i16 %0)
  ret i16 %1
}

; Function Attrs: nounwind sspstrong uwtable
define internal void @_nocheck__trace_colo_proxy_main_vnet_info(ptr noundef %sta, i32 noundef %vnet_hdr, i32 noundef %size) #0 {
entry:
  %sta.addr = alloca ptr, align 8
  %vnet_hdr.addr = alloca i32, align 4
  %size.addr = alloca i32, align 4
  %_now = alloca %struct.timeval, align 8
  store ptr %sta, ptr %sta.addr, align 8
  store i32 %vnet_hdr, ptr %vnet_hdr.addr, align 4
  store i32 %size, ptr %size.addr, align 4
  %0 = load i32, ptr @trace_events_enabled_count, align 4
  %tobool = icmp ne i32 %0, 0
  %lnot = xor i1 %tobool, true
  %lnot1 = xor i1 %lnot, true
  %lnot.ext = zext i1 %lnot1 to i32
  %conv = sext i32 %lnot.ext to i64
  %tobool2 = icmp ne i64 %conv, 0
  br i1 %tobool2, label %land.lhs.true, label %if.end11

land.lhs.true:                                    ; preds = %entry
  %1 = load i16, ptr @_TRACE_COLO_PROXY_MAIN_VNET_INFO_DSTATE, align 2
  %conv3 = zext i16 %1 to i32
  %tobool4 = icmp ne i32 %conv3, 0
  br i1 %tobool4, label %land.lhs.true5, label %if.end11

land.lhs.true5:                                   ; preds = %land.lhs.true
  %call = call zeroext i1 @qemu_loglevel_mask(i32 noundef 32768)
  br i1 %call, label %if.then, label %if.end11

if.then:                                          ; preds = %land.lhs.true5
  %2 = load i8, ptr @message_with_timestamp, align 1
  %tobool7 = trunc i8 %2 to i1
  br i1 %tobool7, label %if.then8, label %if.else

if.then8:                                         ; preds = %if.then
  %call9 = call i32 @gettimeofday(ptr noundef %_now, ptr noundef null) #15
  %call10 = call i32 @qemu_get_thread_id()
  %tv_sec = getelementptr inbounds %struct.timeval, ptr %_now, i32 0, i32 0
  %3 = load i64, ptr %tv_sec, align 8
  %tv_usec = getelementptr inbounds %struct.timeval, ptr %_now, i32 0, i32 1
  %4 = load i64, ptr %tv_usec, align 8
  %5 = load ptr, ptr %sta.addr, align 8
  %6 = load i32, ptr %vnet_hdr.addr, align 4
  %7 = load i32, ptr %size.addr, align 4
  call void (ptr, ...) @qemu_log(ptr noundef @.str.6, i32 noundef %call10, i64 noundef %3, i64 noundef %4, ptr noundef %5, i32 noundef %6, i32 noundef %7)
  br label %if.end

if.else:                                          ; preds = %if.then
  %8 = load ptr, ptr %sta.addr, align 8
  %9 = load i32, ptr %vnet_hdr.addr, align 4
  %10 = load i32, ptr %size.addr, align 4
  call void (ptr, ...) @qemu_log(ptr noundef @.str.7, ptr noundef %8, i32 noundef %9, i32 noundef %10)
  br label %if.end

if.end:                                           ; preds = %if.else, %if.then8
  br label %if.end11

if.end11:                                         ; preds = %if.end, %land.lhs.true5, %land.lhs.true, %entry
  ret void
}

; Function Attrs: nounwind sspstrong uwtable
define internal void @trace_colo_proxy_main(ptr noundef %chr) #0 {
entry:
  %chr.addr = alloca ptr, align 8
  store ptr %chr, ptr %chr.addr, align 8
  %0 = load ptr, ptr %chr.addr, align 8
  call void @_nocheck__trace_colo_proxy_main(ptr noundef %0)
  ret void
}

; Function Attrs: nounwind sspstrong uwtable
define internal i32 @eth_get_l2_hdr_length(ptr noundef %p) #0 {
entry:
  %retval = alloca i32, align 4
  %p.addr = alloca ptr, align 8
  %proto = alloca i16, align 2
  %hvlan = alloca ptr, align 8
  store ptr %p, ptr %p.addr, align 8
  %0 = load ptr, ptr %p.addr, align 8
  %h_proto = getelementptr inbounds %struct.eth_header, ptr %0, i32 0, i32 2
  %1 = load i16, ptr %h_proto, align 2
  %call = call zeroext i16 @be16_to_cpu(i16 noundef zeroext %1)
  store i16 %call, ptr %proto, align 2
  %2 = load ptr, ptr %p.addr, align 8
  %add.ptr = getelementptr i8, ptr %2, i64 14
  store ptr %add.ptr, ptr %hvlan, align 8
  %3 = load i16, ptr %proto, align 2
  %conv = zext i16 %3 to i32
  switch i32 %conv, label %sw.default [
    i32 33024, label %sw.bb
    i32 34984, label %sw.bb1
  ]

sw.bb:                                            ; preds = %entry
  store i32 18, ptr %retval, align 4
  br label %return

sw.bb1:                                           ; preds = %entry
  %4 = load ptr, ptr %hvlan, align 8
  %h_proto2 = getelementptr inbounds %struct.vlan_header, ptr %4, i32 0, i32 1
  %5 = load i16, ptr %h_proto2, align 2
  %call3 = call zeroext i16 @be16_to_cpu(i16 noundef zeroext %5)
  %conv4 = zext i16 %call3 to i32
  %cmp = icmp eq i32 %conv4, 33024
  br i1 %cmp, label %if.then, label %if.else

if.then:                                          ; preds = %sw.bb1
  store i32 22, ptr %retval, align 4
  br label %return

if.else:                                          ; preds = %sw.bb1
  store i32 18, ptr %retval, align 4
  br label %return

sw.default:                                       ; preds = %entry
  store i32 14, ptr %retval, align 4
  br label %return

return:                                           ; preds = %sw.default, %if.else, %if.then, %sw.bb
  %6 = load i32, ptr %retval, align 4
  ret i32 %6
}

; Function Attrs: nounwind sspstrong uwtable
define internal void @trace_colo_proxy_main_vnet_info(ptr noundef %sta, i32 noundef %vnet_hdr, i32 noundef %size) #0 {
entry:
  %sta.addr = alloca ptr, align 8
  %vnet_hdr.addr = alloca i32, align 4
  %size.addr = alloca i32, align 4
  store ptr %sta, ptr %sta.addr, align 8
  store i32 %vnet_hdr, ptr %vnet_hdr.addr, align 4
  store i32 %size, ptr %size.addr, align 4
  %0 = load ptr, ptr %sta.addr, align 8
  %1 = load i32, ptr %vnet_hdr.addr, align 4
  %2 = load i32, ptr %size.addr, align 4
  call void @_nocheck__trace_colo_proxy_main_vnet_info(ptr noundef %0, i32 noundef %1, i32 noundef %2)
  ret void
}

; Function Attrs: nounwind sspstrong uwtable
define dso_local i32 @parse_packet_early(ptr noundef %pkt) #0 {
entry:
  %retval = alloca i32, align 4
  %pkt.addr = alloca ptr, align 8
  %network_length = alloca i32, align 4
  %data = alloca ptr, align 8
  %l3_proto = alloca i16, align 2
  %l2hdr_len = alloca i64, align 8
  %l2vec = alloca %struct.iovec, align 8
  store ptr %pkt, ptr %pkt.addr, align 8
  %0 = load ptr, ptr %pkt.addr, align 8
  %data1 = getelementptr inbounds %struct.Packet, ptr %0, i32 0, i32 0
  %1 = load ptr, ptr %data1, align 8
  store ptr %1, ptr %data, align 8
  %2 = load ptr, ptr %data, align 8
  %tobool = icmp ne ptr %2, null
  br i1 %tobool, label %if.then, label %if.else

if.then:                                          ; preds = %entry
  br label %if.end

if.else:                                          ; preds = %entry
  call void @__assert_fail(ptr noundef @.str, ptr noundef @.str.1, i32 noundef 51, ptr noundef @__PRETTY_FUNCTION__.parse_packet_early) #11
  unreachable

if.end:                                           ; preds = %if.then
  %3 = load ptr, ptr %pkt.addr, align 8
  %vnet_hdr_len = getelementptr inbounds %struct.Packet, ptr %3, i32 0, i32 5
  %4 = load i32, ptr %vnet_hdr_len, align 8
  %conv = zext i32 %4 to i64
  %cmp = icmp ugt i64 %conv, 20
  br i1 %cmp, label %if.then8, label %lor.lhs.false

lor.lhs.false:                                    ; preds = %if.end
  %5 = load ptr, ptr %pkt.addr, align 8
  %size = getelementptr inbounds %struct.Packet, ptr %5, i32 0, i32 3
  %6 = load i32, ptr %size, align 8
  %conv3 = sext i32 %6 to i64
  %7 = load ptr, ptr %pkt.addr, align 8
  %vnet_hdr_len4 = getelementptr inbounds %struct.Packet, ptr %7, i32 0, i32 5
  %8 = load i32, ptr %vnet_hdr_len4, align 8
  %conv5 = zext i32 %8 to i64
  %add = add i64 18, %conv5
  %cmp6 = icmp ult i64 %conv3, %add
  br i1 %cmp6, label %if.then8, label %if.end11

if.then8:                                         ; preds = %lor.lhs.false, %if.end
  %9 = load ptr, ptr %pkt.addr, align 8
  %vnet_hdr_len9 = getelementptr inbounds %struct.Packet, ptr %9, i32 0, i32 5
  %10 = load i32, ptr %vnet_hdr_len9, align 8
  %11 = load ptr, ptr %pkt.addr, align 8
  %size10 = getelementptr inbounds %struct.Packet, ptr %11, i32 0, i32 3
  %12 = load i32, ptr %size10, align 8
  call void @trace_colo_proxy_main_vnet_info(ptr noundef @.str.2, i32 noundef %10, i32 noundef %12)
  store i32 1, ptr %retval, align 4
  br label %return

if.end11:                                         ; preds = %lor.lhs.false
  %13 = load ptr, ptr %pkt.addr, align 8
  %vnet_hdr_len12 = getelementptr inbounds %struct.Packet, ptr %13, i32 0, i32 5
  %14 = load i32, ptr %vnet_hdr_len12, align 8
  %15 = load ptr, ptr %data, align 8
  %idx.ext = zext i32 %14 to i64
  %add.ptr = getelementptr i8, ptr %15, i64 %idx.ext
  store ptr %add.ptr, ptr %data, align 8
  %16 = load ptr, ptr %data, align 8
  %call = call i32 @eth_get_l2_hdr_length(ptr noundef %16)
  %conv13 = zext i32 %call to i64
  store i64 %conv13, ptr %l2hdr_len, align 8
  %17 = load ptr, ptr %data, align 8
  %arrayidx = getelementptr i8, ptr %17, i64 12
  %call14 = call i32 @memcmp(ptr noundef %arrayidx, ptr noundef @parse_packet_early.vlan, i64 noundef 2) #10
  %tobool15 = icmp ne i32 %call14, 0
  br i1 %tobool15, label %if.end17, label %if.then16

if.then16:                                        ; preds = %if.end11
  call void @trace_colo_proxy_main(ptr noundef @.str.3)
  store i32 1, ptr %retval, align 4
  br label %return

if.end17:                                         ; preds = %if.end11
  %18 = load ptr, ptr %data, align 8
  %19 = load i64, ptr %l2hdr_len, align 8
  %add.ptr18 = getelementptr i8, ptr %18, i64 %19
  %20 = load ptr, ptr %pkt.addr, align 8
  %21 = getelementptr inbounds %struct.Packet, ptr %20, i32 0, i32 1
  store ptr %add.ptr18, ptr %21, align 8
  %iov_base = getelementptr inbounds %struct.iovec, ptr %l2vec, i32 0, i32 0
  %22 = load ptr, ptr %data, align 8
  store ptr %22, ptr %iov_base, align 8
  %iov_len = getelementptr inbounds %struct.iovec, ptr %l2vec, i32 0, i32 1
  %23 = load i64, ptr %l2hdr_len, align 8
  store i64 %23, ptr %iov_len, align 8
  %24 = load i64, ptr %l2hdr_len, align 8
  %call19 = call zeroext i16 @eth_get_l3_proto(ptr noundef %l2vec, i32 noundef 1, i64 noundef %24)
  store i16 %call19, ptr %l3_proto, align 2
  %25 = load i16, ptr %l3_proto, align 2
  %conv20 = zext i16 %25 to i32
  %cmp21 = icmp ne i32 %conv20, 2048
  br i1 %cmp21, label %if.then23, label %if.end24

if.then23:                                        ; preds = %if.end17
  store i32 1, ptr %retval, align 4
  br label %return

if.end24:                                         ; preds = %if.end17
  %26 = load ptr, ptr %pkt.addr, align 8
  %27 = getelementptr inbounds %struct.Packet, ptr %26, i32 0, i32 1
  %28 = load ptr, ptr %27, align 8
  %bf.load = load i8, ptr %28, align 1
  %bf.clear = and i8 %bf.load, 15
  %conv25 = zext i8 %bf.clear to i32
  %mul = mul i32 %conv25, 4
  store i32 %mul, ptr %network_length, align 4
  %29 = load ptr, ptr %pkt.addr, align 8
  %size26 = getelementptr inbounds %struct.Packet, ptr %29, i32 0, i32 3
  %30 = load i32, ptr %size26, align 8
  %conv27 = sext i32 %30 to i64
  %31 = load i64, ptr %l2hdr_len, align 8
  %32 = load i32, ptr %network_length, align 4
  %conv28 = sext i32 %32 to i64
  %add29 = add i64 %31, %conv28
  %33 = load ptr, ptr %pkt.addr, align 8
  %vnet_hdr_len30 = getelementptr inbounds %struct.Packet, ptr %33, i32 0, i32 5
  %34 = load i32, ptr %vnet_hdr_len30, align 8
  %conv31 = zext i32 %34 to i64
  %add32 = add i64 %add29, %conv31
  %cmp33 = icmp slt i64 %conv27, %add32
  br i1 %cmp33, label %if.then35, label %if.end36

if.then35:                                        ; preds = %if.end24
  call void @trace_colo_proxy_main(ptr noundef @.str.4)
  store i32 1, ptr %retval, align 4
  br label %return

if.end36:                                         ; preds = %if.end24
  %35 = load ptr, ptr %pkt.addr, align 8
  %36 = getelementptr inbounds %struct.Packet, ptr %35, i32 0, i32 1
  %37 = load ptr, ptr %36, align 8
  %38 = load i32, ptr %network_length, align 4
  %idx.ext37 = sext i32 %38 to i64
  %add.ptr38 = getelementptr i8, ptr %37, i64 %idx.ext37
  %39 = load ptr, ptr %pkt.addr, align 8
  %transport_header = getelementptr inbounds %struct.Packet, ptr %39, i32 0, i32 2
  store ptr %add.ptr38, ptr %transport_header, align 8
  store i32 0, ptr %retval, align 4
  br label %return

return:                                           ; preds = %if.end36, %if.then35, %if.then23, %if.then16, %if.then8
  %40 = load i32, ptr %retval, align 4
  ret i32 %40
}